target datalayout = "e-m:e-p270:32:32-p271:32:32-p272:64:64-i64:64-i128:128-f80:128-n8:16:32:64-S128"
target triple = "x86_64-pc-linux-gnu"

%struct._GtkDarktableGradientSlider = type { %struct._GtkDrawingArea, ptr, i32, i32, i32, [10 x double], [10 x double], [10 x i32], double, double, [3 x double], i32, i32, i32, i32, i32, i32, i32, i32, i32, ptr }
%struct._GtkDrawingArea = type { %struct._GtkWidget, ptr }
%struct._GtkWidget = type { %struct._GObject, ptr }
%struct._GObject = type { %struct._GTypeInstance, i32, ptr }
%struct._GTypeInstance = type { ptr }

@.str.1 = private unnamed_addr constant [16 x i8] c"gslider != NULL\00", align 1
@__func__.dtgtk_gradient_slider_set_increment = private unnamed_addr constant [36 x i8] c"dtgtk_gradient_slider_set_increment\00", align 1

; Function Attrs: nounwind uwtable
define void @dtgtk_gradient_slider_set_increment(ptr noundef %0, double noundef %1) #0 {
  %3 = alloca ptr, align 8
  %4 = alloca double, align 8
  %5 = alloca i32, align 4
  %6 = alloca i32, align 4
  store ptr %0, ptr %3, align 8, !tbaa !24
  store double %1, ptr %4, align 8, !tbaa !45
  br label %7

7:                                                ; preds = %2
  call void @llvm.lifetime.start.p0(i64 4, ptr %5) #11
  %8 = load ptr, ptr %3, align 8, !tbaa !24
  %9 = icmp ne ptr %8, null
  br i1 %9, label %10, label %11

10:                                               ; preds = %7
  store i32 1, ptr %5, align 4, !tbaa !13
  br label %12

11:                                               ; preds = %7
  store i32 0, ptr %5, align 4, !tbaa !13
  br label %12

12:                                               ; preds = %11, %10
  %13 = load i32, ptr %5, align 4, !tbaa !13
  store i32 %13, ptr %6, align 4, !tbaa !13
  call void @llvm.lifetime.end.p0(i64 4, ptr %5) #11
  %14 = load i32, ptr %6, align 4, !tbaa !13
  %15 = sext i32 %14 to i64
  %16 = call i64 @llvm.expect.i64(i64 %15, i64 1)
  %17 = icmp ne i64 %16, 0
  br i1 %17, label %18, label %19

18:                                               ; preds = %12
  br label %20

19:                                               ; preds = %12
  call void @g_return_if_fail_warning(ptr noundef null, ptr noundef @__func__.dtgtk_gradient_slider_set_increment, ptr noundef @.str.1)
  br label %25

20:                                               ; preds = %18
  br label %21

21:                                               ; preds = %20
  %22 = load double, ptr %4, align 8, !tbaa !45
  %23 = load ptr, ptr %3, align 8, !tbaa !24
  %24 = getelementptr inbounds nuw %struct._GtkDarktableGradientSlider, ptr %23, i32 0, i32 8
  store double %22, ptr %24, align 8, !tbaa !46
  br label %25

25:                                               ; preds = %21, %19
  ret void
}